target datalayout = "e-m:e-p270:32:32-p271:32:32-p272:64:64-i64:64-i128:128-f80:128-n8:16:32:64-S128"
target triple = "x86_64-pc-linux-gnu"

@.str.119 = private unnamed_addr constant [25 x i8] c"PyGILState_Check failed!\00", align 1

; Function Attrs: nounwind uwtable
define internal void @bpo20891_thread(ptr noundef %0) #0 {
  %2 = alloca ptr, align 8
  %3 = alloca ptr, align 8
  %4 = alloca i32, align 4
  store ptr %0, ptr %2, align 8, !tbaa !38
  call void @llvm.lifetime.start.p0(i64 8, ptr %3) #11
  %5 = load ptr, ptr %2, align 8, !tbaa !38
  %6 = load ptr, ptr %5, align 8, !tbaa !38
  store ptr %6, ptr %3, align 8, !tbaa !38
  call void @llvm.lifetime.start.p0(i64 4, ptr %4) #11
  %7 = call i32 @PyGILState_Ensure()
  store i32 %7, ptr %4, align 4, !tbaa !4
  %8 = call i32 @PyGILState_Check()
  %9 = icmp ne i32 %8, 0
  br i1 %9, label %11, label %10

10:                                               ; preds = %1
  call void @error(ptr noundef @.str.119)
  call void @abort() #13
  unreachable

11:                                               ; preds = %1
  %12 = load i32, ptr %4, align 4, !tbaa !4
  call void @PyGILState_Release(i32 noundef %12)
  %13 = load ptr, ptr %3, align 8, !tbaa !38
  call void @PyThread_release_lock(ptr noundef %13)
  call void @llvm.lifetime.end.p0(i64 4, ptr %4) #11
  call void @llvm.lifetime.end.p0(i64 8, ptr %3) #11
  ret void
}