; Function Attrs: nounwind uwtable
define internal void @bpo20891_thread(ptr noundef readonly captures(none) %0) #0 {
  %2 = load ptr, ptr %0, align 8, !tbaa !41
  %3 = tail call i32 @PyGILState_Ensure() #20
  %4 = tail call i32 @PyGILState_Check() #20
  %.not = icmp eq i32 %4, 0
  br i1 %.not, label %5, label %6

5:                                                ; preds = %1
  tail call fastcc void @error(ptr noundef nonnull @.str.119)
  tail call void @abort() #24
  unreachable

6:                                                ; preds = %1
  tail call void @PyGILState_Release(i32 noundef %3) #20
  tail call void @PyThread_release_lock(ptr noundef %2) #20
  ret void
}